Certificate:
    Data:
        Version: 3 (0x2)
        Serial Number: 3245 (0xcad)
        Signature Algorithm: sha1WithRSAEncryption
        Issuer: C=US, ST=Colorado, L=Westminster, O=Jasig, OU=CAS, CN=CAS Test User CA
        Validity
            Not Before: Jan 31 17:03:29 2011 GMT
            Not After : Dec 26 17:03:29 2032 GMT
        Subject: C=US, ST=Colorado, L=Westminster, O=Jasig, OU=CAS, CN=Malverde
        Subject Public Key Info:
            Public Key Algorithm: rsaEncryption
            RSA Public Key: (2048 bit)
                Modulus (2048 bit):
                    00:cb:7b:c9:05:71:72:77:e4:7a:9b:3f:5f:5b:5d:
                    2c:84:65:8a:3e:45:d5:29:71:cd:a0:01:46:f0:76:
                    a3:17:52:14:70:1c:68:11:b5:1e:de:4f:2a:c5:72:
                    d9:c5:dd:f3:e2:f3:5b:4b:c0:f1:92:29:3b:8a:1f:
                    0a:56:39:fe:02:28:cc:32:76:81:d8:db:3e:21:62:
                    dd:89:24:07:0b:d9:3a:ae:19:78:61:a0:b3:d5:ed:
                    e0:00:02:87:cb:ff:79:e6:e9:b0:b7:38:a6:db:78:
                    e1:cc:60:dd:6b:d7:4a:97:80:81:76:3c:6d:91:e4:
                    de:09:cf:a0:e6:75:29:ba:c6:d1:9c:7d:90:5d:da:
                    af:e4:a0:9e:fa:7b:2a:9e:da:e4:d4:64:1e:4c:25:
                    77:f0:3c:f5:ea:7a:8c:e8:9f:ed:ab:66:ee:c3:c7:
                    72:8c:25:30:82:7e:3f:28:22:a1:b5:6a:1d:64:8f:
                    8f:45:62:33:2e:f6:bb:0b:88:93:b7:0a:45:55:d6:
                    2d:84:72:62:5d:26:ec:8b:db:58:4f:b8:23:48:ed:
                    be:f4:55:51:8c:5b:25:2e:cf:16:12:30:d4:05:68:
                    e4:78:db:ab:bb:66:89:19:70:d0:a9:09:48:44:fb:
                    f4:7a:6c:12:55:fd:14:13:da:1f:14:c4:de:83:12:
                    c6:01
                Exponent: 65537 (0x10001)
        X509v3 extensions:
            X509v3 Basic Constraints: 
                CA:FALSE
            Netscape Comment: 
                OpenSSL Generated Certificate
            X509v3 Subject Key Identifier: 
                27:3E:80:D5:75:E0:F6:D1:53:E0:68:92:6F:67:05:DB:36:08:95:21
            X509v3 Authority Key Identifier: 
                keyid:19:1B:78:8D:93:62:B2:49:66:90:55:6E:50:B3:D0:AF:61:EB:39:F3

            X509v3 CRL Distribution Points: 
                URI:http://localhost:8085/ca?issuer=CN=CAS Test User CA

    Signature Algorithm: sha1WithRSAEncryption
        51:8a:3e:fe:e5:b5:9a:f6:8d:82:f5:4c:0a:22:8f:5b:c9:64:
        07:c2:7a:3a:c6:6c:17:57:1b:da:f5:32:b7:83:cc:07:0e:90:
        a6:ec:e0:3e:24:3a:70:51:1b:98:a0:d0:ac:32:00:f0:d5:1f:
        bf:09:d9:32:9b:f1:c2:f4:9e:71:45:a8:f7:03:82:ce:e0:b9:
        e6:e5:4b:85:b2:04:6d:7b:71:f2:28:3f:1a:48:b1:4c:0d:78:
        03:d4:67:15:d5:57:06:39:dd:17:a5:bd:49:10:42:c2:cc:c9:
        29:6f:96:b2:b0:00:c8:e7:5b:c2:dd:03:3d:7c:7f:06:5d:80:
        f9:32:00:56:33:68:bc:9a:57:c5:ab:c4:11:29:5c:d6:e9:21:
        9b:25:30:d8:94:cd:5d:52:76:61:9c:cb:8c:dd:ee:5a:69:26:
        a3:1f:8c:55:c0:10:e3:77:4c:82:79:a4:7c:c5:1e:b5:b6:d1:
        8c:6a:0e:33:ce:43:42:c1:0b:2e:7c:72:05:78:10:d7:7f:9c:
        5f:6d:16:be:fa:18:51:8a:5d:15:39:2f:a8:ed:39:51:73:1e:
        e3:39:a9:d5:54:9a:fc:6e:37:5e:af:ef:86:af:38:8a:68:32:
        49:4a:b1:1e:91:0d:51:e4:c5:5e:3d:7a:4e:54:2b:e6:58:ae:
        63:a4:d7:82
-----BEGIN CERTIFICATE-----
MIIEFTCCAv2gAwIBAgICDK0wDQYJKoZIhvcNAQEFBQAwbzELMAkGA1UEBhMCVVMx
ETAPBgNVBAgTCENvbG9yYWRvMRQwEgYDVQQHEwtXZXN0bWluc3RlcjEOMAwGA1UE
ChMFSmFzaWcxDDAKBgNVBAsTA0NBUzEZMBcGA1UEAxMQQ0FTIFRlc3QgVXNlciBD
QTAeFw0xMTAxMzExNzAzMjlaFw0zMjEyMjYxNzAzMjlaMGcxCzAJBgNVBAYTAlVT
MREwDwYDVQQIEwhDb2xvcmFkbzEUMBIGA1UEBxMLV2VzdG1pbnN0ZXIxDjAMBgNV
BAoTBUphc2lnMQwwCgYDVQQLEwNDQVMxETAPBgNVBAMTCE1hbHZlcmRlMIIBIjAN
BgkqhkiG9w0BAQEFAAOCAQ8AMIIBCgKCAQEAy3vJBXFyd+R6mz9fW10shGWKPkXV
KXHNoAFG8HajF1IUcBxoEbUe3k8qxXLZxd3z4vNbS8Dxkik7ih8KVjn+AijMMnaB
2Ns+IWLdiSQHC9k6rhl4YaCz1e3gAAKHy/955umwtzim23jhzGDda9dKl4CBdjxt
keTeCc+g5nUpusbRnH2QXdqv5KCe+nsqntrk1GQeTCV38Dz16nqM6J/tq2buw8dy
jCUwgn4/KCKhtWodZI+PRWIzLva7C4iTtwpFVdYthHJiXSbsi9tYT7gjSO2+9FVR
jFslLs8WEjDUBWjkeNuru2aJGXDQqQlIRPv0emwSVf0UE9ofFMTegxLGAQIDAQAB
o4HCMIG/MAkGA1UdEwQCMAAwLAYJYIZIAYb4QgENBB8WHU9wZW5TU0wgR2VuZXJh
dGVkIENlcnRpZmljYXRlMB0GA1UdDgQWBBQnPoDVdeD20VPgaJJvZwXbNgiVITAf
BgNVHSMEGDAWgBQZG3iNk2KySWaQVW5Qs9CvYes58zBEBgNVHR8EPTA7MDmgN6A1
hjNodHRwOi8vbG9jYWxob3N0OjgwODUvY2E/aXNzdWVyPUNOPUNBUyBUZXN0IFVz
ZXIgQ0EwDQYJKoZIhvcNAQEFBQADggEBAFGKPv7ltZr2jYL1TAoij1vJZAfCejrG
bBdXG9r1MreDzAcOkKbs4D4kOnBRG5ig0KwyAPDVH78J2TKb8cL0nnFFqPcDgs7g
ueblS4WyBG17cfIoPxpIsUwNeAPUZxXVVwY53RelvUkQQsLMySlvlrKwAMjnW8Ld
Az18fwZdgPkyAFYzaLyaV8WrxBEpXNbpIZslMNiUzV1SdmGcy4zd7lppJqMfjFXA
EON3TIJ5pHzFHrW20YxqDjPOQ0LBCy58cgV4ENd/nF9tFr76GFGKXRU5L6jtOVFz
HuM5qdVUmvxuN16v74avOIpoMklKsR6RDVHkxV49ek5UK+ZYrmOk14I=
-----END CERTIFICATE-----
