Certificate:
    Data:
        Version: 3 (0x2)
        Serial Number: 3237 (0xca5)
        Signature Algorithm: sha1WithRSAEncryption
        Issuer: C=US, ST=Colorado, L=Westminster, O=Jasig, OU=CAS, CN=CAS Test User CA
        Validity
            Not Before: Jan 19 18:27:57 2011 GMT
            Not After : Dec 14 18:27:57 2032 GMT
        Subject: C=US, ST=Colorado, L=Westminster, O=Jasig, OU=CAS, CN=Alice
        Subject Public Key Info:
            Public Key Algorithm: rsaEncryption
            RSA Public Key: (2048 bit)
                Modulus (2048 bit):
                    00:cb:7b:c9:05:71:72:77:e4:7a:9b:3f:5f:5b:5d:
                    2c:84:65:8a:3e:45:d5:29:71:cd:a0:01:46:f0:76:
                    a3:17:52:14:70:1c:68:11:b5:1e:de:4f:2a:c5:72:
                    d9:c5:dd:f3:e2:f3:5b:4b:c0:f1:92:29:3b:8a:1f:
                    0a:56:39:fe:02:28:cc:32:76:81:d8:db:3e:21:62:
                    dd:89:24:07:0b:d9:3a:ae:19:78:61:a0:b3:d5:ed:
                    e0:00:02:87:cb:ff:79:e6:e9:b0:b7:38:a6:db:78:
                    e1:cc:60:dd:6b:d7:4a:97:80:81:76:3c:6d:91:e4:
                    de:09:cf:a0:e6:75:29:ba:c6:d1:9c:7d:90:5d:da:
                    af:e4:a0:9e:fa:7b:2a:9e:da:e4:d4:64:1e:4c:25:
                    77:f0:3c:f5:ea:7a:8c:e8:9f:ed:ab:66:ee:c3:c7:
                    72:8c:25:30:82:7e:3f:28:22:a1:b5:6a:1d:64:8f:
                    8f:45:62:33:2e:f6:bb:0b:88:93:b7:0a:45:55:d6:
                    2d:84:72:62:5d:26:ec:8b:db:58:4f:b8:23:48:ed:
                    be:f4:55:51:8c:5b:25:2e:cf:16:12:30:d4:05:68:
                    e4:78:db:ab:bb:66:89:19:70:d0:a9:09:48:44:fb:
                    f4:7a:6c:12:55:fd:14:13:da:1f:14:c4:de:83:12:
                    c6:01
                Exponent: 65537 (0x10001)
        X509v3 extensions:
            X509v3 Basic Constraints: 
                CA:FALSE
            Netscape Comment: 
                OpenSSL Generated Certificate
            X509v3 Subject Key Identifier: 
                27:3E:80:D5:75:E0:F6:D1:53:E0:68:92:6F:67:05:DB:36:08:95:21
            X509v3 Authority Key Identifier: 
                keyid:19:1B:78:8D:93:62:B2:49:66:90:55:6E:50:B3:D0:AF:61:EB:39:F3

    Signature Algorithm: sha1WithRSAEncryption
        6a:dd:33:d9:8f:d1:8c:da:66:6c:86:eb:81:2f:b8:f7:37:8b:
        ae:3c:af:a2:68:88:f7:6e:1f:53:90:6d:89:ff:6a:3e:5e:82:
        5b:79:e9:57:94:82:39:32:e2:ab:a5:ad:90:5b:cd:3a:b4:b5:
        f3:96:d1:ee:ac:03:d0:69:60:42:41:a5:c7:6e:e0:68:9d:c5:
        39:4b:53:26:27:72:cc:bb:72:76:a8:c2:be:79:04:35:88:2f:
        14:f8:06:f9:f2:3d:dd:9a:8e:5a:8d:9e:8c:55:a6:02:97:73:
        2a:09:2d:4b:6a:a4:2b:19:5f:28:78:0f:40:fd:4d:8c:19:54:
        1a:1c:04:f4:15:f6:e1:8a:59:9f:99:80:a0:00:7a:56:b5:77:
        8b:c8:5f:67:ed:28:8a:3d:3e:69:08:88:71:ac:37:a4:a2:85:
        1c:6e:a3:b4:bf:ad:7e:43:f9:ca:f8:50:37:10:4a:42:53:5c:
        35:04:68:91:5e:fe:c4:b4:66:d2:5d:bd:50:58:ba:5d:42:04:
        99:2a:1b:a2:be:ff:ac:49:f4:0e:2d:e1:a3:20:21:d5:bf:f5:
        bb:f1:e1:e0:52:3e:d4:fe:f3:0d:f4:ca:2e:86:ae:15:95:b7:
        69:cc:9a:c4:40:4e:85:c7:fc:83:32:09:f5:ea:68:96:aa:df:
        36:96:2d:3a
-----BEGIN CERTIFICATE-----
MIIDyjCCArKgAwIBAgICDKUwDQYJKoZIhvcNAQEFBQAwbzELMAkGA1UEBhMCVVMx
ETAPBgNVBAgTCENvbG9yYWRvMRQwEgYDVQQHEwtXZXN0bWluc3RlcjEOMAwGA1UE
ChMFSmFzaWcxDDAKBgNVBAsTA0NBUzEZMBcGA1UEAxMQQ0FTIFRlc3QgVXNlciBD
QTAeFw0xMTAxMTkxODI3NTdaFw0zMjEyMTQxODI3NTdaMGQxCzAJBgNVBAYTAlVT
MREwDwYDVQQIEwhDb2xvcmFkbzEUMBIGA1UEBxMLV2VzdG1pbnN0ZXIxDjAMBgNV
BAoTBUphc2lnMQwwCgYDVQQLEwNDQVMxDjAMBgNVBAMTBUFsaWNlMIIBIjANBgkq
hkiG9w0BAQEFAAOCAQ8AMIIBCgKCAQEAy3vJBXFyd+R6mz9fW10shGWKPkXVKXHN
oAFG8HajF1IUcBxoEbUe3k8qxXLZxd3z4vNbS8Dxkik7ih8KVjn+AijMMnaB2Ns+
IWLdiSQHC9k6rhl4YaCz1e3gAAKHy/955umwtzim23jhzGDda9dKl4CBdjxtkeTe
Cc+g5nUpusbRnH2QXdqv5KCe+nsqntrk1GQeTCV38Dz16nqM6J/tq2buw8dyjCUw
gn4/KCKhtWodZI+PRWIzLva7C4iTtwpFVdYthHJiXSbsi9tYT7gjSO2+9FVRjFsl
Ls8WEjDUBWjkeNuru2aJGXDQqQlIRPv0emwSVf0UE9ofFMTegxLGAQIDAQABo3sw
eTAJBgNVHRMEAjAAMCwGCWCGSAGG+EIBDQQfFh1PcGVuU1NMIEdlbmVyYXRlZCBD
ZXJ0aWZpY2F0ZTAdBgNVHQ4EFgQUJz6A1XXg9tFT4GiSb2cF2zYIlSEwHwYDVR0j
BBgwFoAUGRt4jZNisklmkFVuULPQr2HrOfMwDQYJKoZIhvcNAQEFBQADggEBAGrd
M9mP0YzaZmyG64EvuPc3i648r6JoiPduH1OQbYn/aj5eglt56VeUgjky4qulrZBb
zTq0tfOW0e6sA9BpYEJBpcdu4GidxTlLUyYncsy7cnaowr55BDWILxT4BvnyPd2a
jlqNnoxVpgKXcyoJLUtqpCsZXyh4D0D9TYwZVBocBPQV9uGKWZ+ZgKAAela1d4vI
X2ftKIo9PmkIiHGsN6SihRxuo7S/rX5D+cr4UDcQSkJTXDUEaJFe/sS0ZtJdvVBY
ul1CBJkqG6K+/6xJ9A4t4aMgIdW/9bvx4eBSPtT+8w30yi6GrhWVt2nMmsRAToXH
/IMyCfXqaJaq3zaWLTo=
-----END CERTIFICATE-----
