Certificate:
    Data:
        Version: 3 (0x2)
        Serial Number: 3241 (0xca9)
        Signature Algorithm: sha1WithRSAEncryption
        Issuer: C=US, ST=Colorado, L=Westminster, O=Jasig, OU=CAS, CN=CAS Test User CA
        Validity
            Not Before: Jan 24 19:00:10 2011 GMT
            Not After : Dec 19 19:00:10 2032 GMT
        Subject: C=US, ST=Colorado, L=Westminster, O=Jasig, OU=CAS, CN=Malificent
        Subject Public Key Info:
            Public Key Algorithm: rsaEncryption
            RSA Public Key: (2048 bit)
                Modulus (2048 bit):
                    00:cb:7b:c9:05:71:72:77:e4:7a:9b:3f:5f:5b:5d:
                    2c:84:65:8a:3e:45:d5:29:71:cd:a0:01:46:f0:76:
                    a3:17:52:14:70:1c:68:11:b5:1e:de:4f:2a:c5:72:
                    d9:c5:dd:f3:e2:f3:5b:4b:c0:f1:92:29:3b:8a:1f:
                    0a:56:39:fe:02:28:cc:32:76:81:d8:db:3e:21:62:
                    dd:89:24:07:0b:d9:3a:ae:19:78:61:a0:b3:d5:ed:
                    e0:00:02:87:cb:ff:79:e6:e9:b0:b7:38:a6:db:78:
                    e1:cc:60:dd:6b:d7:4a:97:80:81:76:3c:6d:91:e4:
                    de:09:cf:a0:e6:75:29:ba:c6:d1:9c:7d:90:5d:da:
                    af:e4:a0:9e:fa:7b:2a:9e:da:e4:d4:64:1e:4c:25:
                    77:f0:3c:f5:ea:7a:8c:e8:9f:ed:ab:66:ee:c3:c7:
                    72:8c:25:30:82:7e:3f:28:22:a1:b5:6a:1d:64:8f:
                    8f:45:62:33:2e:f6:bb:0b:88:93:b7:0a:45:55:d6:
                    2d:84:72:62:5d:26:ec:8b:db:58:4f:b8:23:48:ed:
                    be:f4:55:51:8c:5b:25:2e:cf:16:12:30:d4:05:68:
                    e4:78:db:ab:bb:66:89:19:70:d0:a9:09:48:44:fb:
                    f4:7a:6c:12:55:fd:14:13:da:1f:14:c4:de:83:12:
                    c6:01
                Exponent: 65537 (0x10001)
        X509v3 extensions:
            X509v3 Basic Constraints: 
                CA:FALSE
            X509v3 Key Usage: 
                Non Repudiation
            Netscape Comment: 
                OpenSSL Generated Certificate
            X509v3 Subject Key Identifier: 
                27:3E:80:D5:75:E0:F6:D1:53:E0:68:92:6F:67:05:DB:36:08:95:21
            X509v3 Authority Key Identifier: 
                keyid:19:1B:78:8D:93:62:B2:49:66:90:55:6E:50:B3:D0:AF:61:EB:39:F3

    Signature Algorithm: sha1WithRSAEncryption
        79:7d:9c:74:de:69:3e:3b:83:a7:a6:b0:4c:c0:39:49:9d:b7:
        1c:03:a2:d2:ae:61:75:d6:7d:2f:75:37:ec:bd:ca:eb:eb:62:
        ec:23:62:c7:11:e8:7a:a5:46:f8:9f:a4:ad:75:b7:1f:80:08:
        da:d6:dc:ff:48:b5:7e:7d:de:94:d7:c3:d5:36:a0:a7:3a:33:
        6c:11:da:3c:33:59:95:ab:e1:52:f4:de:a9:37:33:b1:1f:ff:
        ae:3b:2a:18:d4:bf:42:a1:86:59:f1:be:a0:62:df:47:39:e0:
        24:91:80:a6:3f:43:7e:6e:e9:af:a8:98:67:24:92:fb:66:06:
        e5:26:c6:85:f1:fd:c5:d6:92:cf:e6:6e:a2:8a:b4:3e:22:6b:
        a4:20:e3:13:eb:ee:d4:1c:b1:e9:21:70:30:20:af:c8:87:1f:
        37:fa:81:7e:3a:09:23:e9:43:17:a5:4b:40:17:f7:f5:67:2d:
        a2:66:af:48:8c:bc:84:ad:99:8c:97:0f:e2:ac:97:96:5d:73:
        9b:76:99:8d:62:b8:eb:63:d9:94:79:14:d7:8c:16:91:ed:a1:
        5e:e6:0c:b9:8f:75:39:a0:1a:d6:69:0e:27:46:d7:8e:1c:71:
        7b:b6:4c:7f:df:83:34:d9:ac:c1:3d:45:a1:4f:c9:9e:06:46:
        27:d3:bc:b3
-----BEGIN CERTIFICATE-----
MIID3jCCAsagAwIBAgICDKkwDQYJKoZIhvcNAQEFBQAwbzELMAkGA1UEBhMCVVMx
ETAPBgNVBAgTCENvbG9yYWRvMRQwEgYDVQQHEwtXZXN0bWluc3RlcjEOMAwGA1UE
ChMFSmFzaWcxDDAKBgNVBAsTA0NBUzEZMBcGA1UEAxMQQ0FTIFRlc3QgVXNlciBD
QTAeFw0xMTAxMjQxOTAwMTBaFw0zMjEyMTkxOTAwMTBaMGkxCzAJBgNVBAYTAlVT
MREwDwYDVQQIEwhDb2xvcmFkbzEUMBIGA1UEBxMLV2VzdG1pbnN0ZXIxDjAMBgNV
BAoTBUphc2lnMQwwCgYDVQQLEwNDQVMxEzARBgNVBAMTCk1hbGlmaWNlbnQwggEi
MA0GCSqGSIb3DQEBAQUAA4IBDwAwggEKAoIBAQDLe8kFcXJ35HqbP19bXSyEZYo+
RdUpcc2gAUbwdqMXUhRwHGgRtR7eTyrFctnF3fPi81tLwPGSKTuKHwpWOf4CKMwy
doHY2z4hYt2JJAcL2TquGXhhoLPV7eAAAofL/3nm6bC3OKbbeOHMYN1r10qXgIF2
PG2R5N4Jz6DmdSm6xtGcfZBd2q/koJ76eyqe2uTUZB5MJXfwPPXqeozon+2rZu7D
x3KMJTCCfj8oIqG1ah1kj49FYjMu9rsLiJO3CkVV1i2EcmJdJuyL21hPuCNI7b70
VVGMWyUuzxYSMNQFaOR426u7ZokZcNCpCUhE+/R6bBJV/RQT2h8UxN6DEsYBAgMB
AAGjgYkwgYYwCQYDVR0TBAIwADALBgNVHQ8EBAMCBkAwLAYJYIZIAYb4QgENBB8W
HU9wZW5TU0wgR2VuZXJhdGVkIENlcnRpZmljYXRlMB0GA1UdDgQWBBQnPoDVdeD2
0VPgaJJvZwXbNgiVITAfBgNVHSMEGDAWgBQZG3iNk2KySWaQVW5Qs9CvYes58zAN
BgkqhkiG9w0BAQUFAAOCAQEAeX2cdN5pPjuDp6awTMA5SZ23HAOi0q5hddZ9L3U3
7L3K6+ti7CNixxHoeqVG+J+krXW3H4AI2tbc/0i1fn3elNfD1TagpzozbBHaPDNZ
lavhUvTeqTczsR//rjsqGNS/QqGGWfG+oGLfRzngJJGApj9Dfm7pr6iYZySS+2YG
5SbGhfH9xdaSz+Zuooq0PiJrpCDjE+vu1Byx6SFwMCCvyIcfN/qBfjoJI+lDF6VL
QBf39WctomavSIy8hK2ZjJcP4qyXll1zm3aZjWK462PZlHkU14wWke2hXuYMuY91
OaAa1mkOJ0bXjhxxe7ZMf9+DNNmswT1FoU/JngZGJ9O8sw==
-----END CERTIFICATE-----
