Certificate:
    Data:
        Version: 3 (0x2)
        Serial Number: 3240 (0xca8)
        Signature Algorithm: sha1WithRSAEncryption
        Issuer: C=US, ST=Colorado, L=Westminster, O=Jasig, OU=CAS, CN=CAS Test User CA
        Validity
            Not Before: Jan 24 18:56:45 2011 GMT
            Not After : Dec 19 18:56:45 2032 GMT
        Subject: C=US, ST=Colorado, L=Westminster, O=Jasig, OU=CAS, CN=Albert
        Subject Public Key Info:
            Public Key Algorithm: rsaEncryption
            RSA Public Key: (2048 bit)
                Modulus (2048 bit):
                    00:cb:7b:c9:05:71:72:77:e4:7a:9b:3f:5f:5b:5d:
                    2c:84:65:8a:3e:45:d5:29:71:cd:a0:01:46:f0:76:
                    a3:17:52:14:70:1c:68:11:b5:1e:de:4f:2a:c5:72:
                    d9:c5:dd:f3:e2:f3:5b:4b:c0:f1:92:29:3b:8a:1f:
                    0a:56:39:fe:02:28:cc:32:76:81:d8:db:3e:21:62:
                    dd:89:24:07:0b:d9:3a:ae:19:78:61:a0:b3:d5:ed:
                    e0:00:02:87:cb:ff:79:e6:e9:b0:b7:38:a6:db:78:
                    e1:cc:60:dd:6b:d7:4a:97:80:81:76:3c:6d:91:e4:
                    de:09:cf:a0:e6:75:29:ba:c6:d1:9c:7d:90:5d:da:
                    af:e4:a0:9e:fa:7b:2a:9e:da:e4:d4:64:1e:4c:25:
                    77:f0:3c:f5:ea:7a:8c:e8:9f:ed:ab:66:ee:c3:c7:
                    72:8c:25:30:82:7e:3f:28:22:a1:b5:6a:1d:64:8f:
                    8f:45:62:33:2e:f6:bb:0b:88:93:b7:0a:45:55:d6:
                    2d:84:72:62:5d:26:ec:8b:db:58:4f:b8:23:48:ed:
                    be:f4:55:51:8c:5b:25:2e:cf:16:12:30:d4:05:68:
                    e4:78:db:ab:bb:66:89:19:70:d0:a9:09:48:44:fb:
                    f4:7a:6c:12:55:fd:14:13:da:1f:14:c4:de:83:12:
                    c6:01
                Exponent: 65537 (0x10001)
        X509v3 extensions:
            X509v3 Basic Constraints: 
                CA:FALSE
            X509v3 Key Usage: 
                Digital Signature, Non Repudiation, Key Encipherment
            Netscape Comment: 
                OpenSSL Generated Certificate
            X509v3 Subject Key Identifier: 
                27:3E:80:D5:75:E0:F6:D1:53:E0:68:92:6F:67:05:DB:36:08:95:21
            X509v3 Authority Key Identifier: 
                keyid:19:1B:78:8D:93:62:B2:49:66:90:55:6E:50:B3:D0:AF:61:EB:39:F3

    Signature Algorithm: sha1WithRSAEncryption
        a0:9a:05:61:8d:6d:9c:03:23:11:59:dc:98:62:eb:49:2a:ea:
        60:d8:31:f3:c2:5a:fb:49:36:3d:b7:0b:2a:16:91:7b:31:ad:
        25:10:b9:f1:cb:d0:89:c2:90:7d:59:9a:12:e1:f6:97:e9:93:
        5b:14:a6:2a:bd:70:f2:38:19:fc:22:44:76:5a:f9:45:1a:2d:
        5a:84:fe:ab:ca:76:00:94:1d:eb:c6:fb:52:bd:ef:97:97:53:
        a3:0f:90:ad:1e:d8:30:ed:f4:90:22:3c:eb:08:95:ac:fe:0a:
        98:72:12:6a:84:60:85:86:44:d4:bc:22:ed:92:9f:05:84:5d:
        34:9a:01:84:ea:a0:06:86:5f:91:50:28:fb:8f:3f:8a:6e:a8:
        35:e9:32:40:f1:04:61:88:25:91:ca:59:72:63:75:17:a7:93:
        56:98:a1:7e:51:3f:52:47:91:ff:be:57:fb:ff:2a:7a:ee:1d:
        e1:25:ae:97:d1:13:fd:41:03:3c:91:91:44:df:b3:35:14:83:
        ab:36:c6:c7:15:f1:32:de:ba:ba:6e:a5:78:65:f5:4a:8d:dc:
        c3:84:1a:c2:a9:cd:8a:49:2f:5f:f0:b1:0f:09:09:bc:1c:bd:
        22:87:37:05:3d:71:85:37:55:b4:eb:05:7e:cb:60:fc:ce:5b:
        23:3e:0d:55
-----BEGIN CERTIFICATE-----
MIID2jCCAsKgAwIBAgICDKgwDQYJKoZIhvcNAQEFBQAwbzELMAkGA1UEBhMCVVMx
ETAPBgNVBAgTCENvbG9yYWRvMRQwEgYDVQQHEwtXZXN0bWluc3RlcjEOMAwGA1UE
ChMFSmFzaWcxDDAKBgNVBAsTA0NBUzEZMBcGA1UEAxMQQ0FTIFRlc3QgVXNlciBD
QTAeFw0xMTAxMjQxODU2NDVaFw0zMjEyMTkxODU2NDVaMGUxCzAJBgNVBAYTAlVT
MREwDwYDVQQIEwhDb2xvcmFkbzEUMBIGA1UEBxMLV2VzdG1pbnN0ZXIxDjAMBgNV
BAoTBUphc2lnMQwwCgYDVQQLEwNDQVMxDzANBgNVBAMTBkFsYmVydDCCASIwDQYJ
KoZIhvcNAQEBBQADggEPADCCAQoCggEBAMt7yQVxcnfkeps/X1tdLIRlij5F1Slx
zaABRvB2oxdSFHAcaBG1Ht5PKsVy2cXd8+LzW0vA8ZIpO4ofClY5/gIozDJ2gdjb
PiFi3YkkBwvZOq4ZeGGgs9Xt4AACh8v/eebpsLc4ptt44cxg3WvXSpeAgXY8bZHk
3gnPoOZ1KbrG0Zx9kF3ar+Sgnvp7Kp7a5NRkHkwld/A89ep6jOif7atm7sPHcowl
MIJ+PygiobVqHWSPj0ViMy72uwuIk7cKRVXWLYRyYl0m7IvbWE+4I0jtvvRVUYxb
JS7PFhIw1AVo5Hjbq7tmiRlw0KkJSET79HpsElX9FBPaHxTE3oMSxgECAwEAAaOB
iTCBhjAJBgNVHRMEAjAAMAsGA1UdDwQEAwIF4DAsBglghkgBhvhCAQ0EHxYdT3Bl
blNTTCBHZW5lcmF0ZWQgQ2VydGlmaWNhdGUwHQYDVR0OBBYEFCc+gNV14PbRU+Bo
km9nBds2CJUhMB8GA1UdIwQYMBaAFBkbeI2TYrJJZpBVblCz0K9h6znzMA0GCSqG
SIb3DQEBBQUAA4IBAQCgmgVhjW2cAyMRWdyYYutJKupg2DHzwlr7STY9twsqFpF7
Ma0lELnxy9CJwpB9WZoS4faX6ZNbFKYqvXDyOBn8IkR2WvlFGi1ahP6rynYAlB3r
xvtSve+Xl1OjD5CtHtgw7fSQIjzrCJWs/gqYchJqhGCFhkTUvCLtkp8FhF00mgGE
6qAGhl+RUCj7jz+Kbqg16TJA8QRhiCWRyllyY3UXp5NWmKF+UT9SR5H/vlf7/yp6
7h3hJa6X0RP9QQM8kZFE37M1FIOrNsbHFfEy3rq6bqV4ZfVKjdzDhBrCqc2KSS9f
8LEPCQm8HL0ihzcFPXGFN1W06wV+y2D8zlsjPg1V
-----END CERTIFICATE-----
