Certificate:
    Data:
        Version: 3 (0x2)
        Serial Number: 3237 (0xca5)
        Signature Algorithm: sha1WithRSAEncryption
        Issuer: C=US, ST=Colorado, L=Westminster, O=Jasig, OU=CAS, CN=CAS Test Intermediate CA
        Validity
            Not Before: Jan 19 18:25:39 2011 GMT
            Not After : Dec 14 18:25:39 2032 GMT
        Subject: C=US, ST=Colorado, L=Westminster, O=Jasig, OU=CAS, CN=CAS Test User CA
        Subject Public Key Info:
            Public Key Algorithm: rsaEncryption
            RSA Public Key: (2048 bit)
                Modulus (2048 bit):
                    00:ab:9d:39:88:09:d6:e8:41:65:21:b8:8c:a2:b7:
                    d6:6c:a9:cf:f5:fe:f9:c7:ec:e3:b1:b2:16:07:8d:
                    2a:8d:d8:bc:7b:1c:73:85:09:82:c9:a2:9a:af:0a:
                    b3:4e:dc:53:bd:9f:27:d1:6d:91:e4:77:8d:fe:bc:
                    74:36:26:54:08:81:e6:1f:74:d6:5a:a4:41:7d:95:
                    93:5c:5b:17:1e:a3:3b:90:08:96:2d:6a:e8:00:c1:
                    b1:3c:0a:0b:93:2d:c4:00:27:d5:ad:ed:d1:b2:66:
                    44:2c:60:b0:2f:92:26:7b:d4:8b:24:01:d6:62:e2:
                    48:17:2e:3c:0d:15:fc:df:42:59:90:30:84:0b:81:
                    86:2a:01:8b:58:ba:15:03:ad:6e:07:58:cf:a1:f7:
                    2e:6e:c8:5c:f2:b1:ae:90:36:67:d4:39:96:b8:04:
                    b4:66:b0:f7:46:2a:ba:21:43:46:b9:fb:93:d1:39:
                    d6:fd:40:b4:d2:9d:e9:d8:4f:dc:ae:14:8e:73:05:
                    26:8a:5c:21:5c:39:a5:c0:9a:66:1c:b8:9e:94:51:
                    ee:71:8c:99:a9:c2:2e:39:00:85:04:d1:14:a7:23:
                    00:4f:7b:52:35:61:0a:d2:0a:64:c9:32:13:7d:46:
                    7d:35:f6:b1:31:48:38:60:6a:9b:b5:bf:3d:23:35:
                    91:21
                Exponent: 65537 (0x10001)
        X509v3 extensions:
            X509v3 Subject Key Identifier: 
                19:1B:78:8D:93:62:B2:49:66:90:55:6E:50:B3:D0:AF:61:EB:39:F3
            X509v3 Authority Key Identifier: 
                keyid:12:38:AD:05:C8:59:B1:10:9F:FF:A8:6B:2E:CE:03:52:FF:59:D8:7F
                DirName:/C=US/ST=Colorado/L=Westminster/O=Jasig/OU=CAS/CN=CAS Test Root CA
                serial:0C:A5

            X509v3 Basic Constraints: 
                CA:TRUE
    Signature Algorithm: sha1WithRSAEncryption
        05:95:6a:d7:a8:b5:cc:94:a2:54:1a:27:04:44:55:f2:cd:2f:
        d3:15:ee:5c:80:99:63:14:b4:23:86:fe:6c:90:de:3a:ac:26:
        68:9c:ef:ab:55:56:00:77:4e:dc:93:32:32:eb:78:da:2a:fb:
        86:2f:7a:d0:e3:d8:b3:ec:02:57:60:41:fb:4d:b2:58:45:26:
        9a:ba:35:96:6b:ff:0c:6e:68:d4:ca:69:74:cc:55:e5:ef:74:
        07:bf:8a:c0:7a:63:22:fd:06:1d:93:18:0d:c2:8f:12:45:3a:
        99:0f:7f:20:23:27:3a:8b:75:2c:26:59:37:d6:75:76:4b:4b:
        87:34:a8:99:f9:eb:90:bf:5a:e5:43:a0:fa:d6:42:cf:1e:c4:
        58:43:c2:44:3a:90:84:5c:82:83:db:6b:c4:21:e7:5e:39:ea:
        ce:4f:be:28:e1:bf:48:e3:d6:fb:0a:88:92:bd:b3:df:2c:0c:
        66:d2:23:5d:03:89:5f:de:4f:ae:8f:05:47:9a:aa:84:70:b5:
        74:bd:19:2c:cd:ca:0b:f5:9a:82:5f:1b:e2:a7:c9:0f:9a:bc:
        c2:69:f4:5c:f2:29:cb:de:c2:f6:63:8d:df:15:b6:34:64:0d:
        aa:a3:42:32:e6:5b:eb:57:10:e3:01:b1:78:b6:fc:a2:ff:62:
        3f:ba:43:4a
-----BEGIN CERTIFICATE-----
MIIEMDCCAxigAwIBAgICDKUwDQYJKoZIhvcNAQEFBQAwdzELMAkGA1UEBhMCVVMx
ETAPBgNVBAgTCENvbG9yYWRvMRQwEgYDVQQHEwtXZXN0bWluc3RlcjEOMAwGA1UE
ChMFSmFzaWcxDDAKBgNVBAsTA0NBUzEhMB8GA1UEAxMYQ0FTIFRlc3QgSW50ZXJt
ZWRpYXRlIENBMB4XDTExMDExOTE4MjUzOVoXDTMyMTIxNDE4MjUzOVowbzELMAkG
A1UEBhMCVVMxETAPBgNVBAgTCENvbG9yYWRvMRQwEgYDVQQHEwtXZXN0bWluc3Rl
cjEOMAwGA1UEChMFSmFzaWcxDDAKBgNVBAsTA0NBUzEZMBcGA1UEAxMQQ0FTIFRl
c3QgVXNlciBDQTCCASIwDQYJKoZIhvcNAQEBBQADggEPADCCAQoCggEBAKudOYgJ
1uhBZSG4jKK31mypz/X++cfs47GyFgeNKo3YvHscc4UJgsmimq8Ks07cU72fJ9Ft
keR3jf68dDYmVAiB5h901lqkQX2Vk1xbFx6jO5AIli1q6ADBsTwKC5MtxAAn1a3t
0bJmRCxgsC+SJnvUiyQB1mLiSBcuPA0V/N9CWZAwhAuBhioBi1i6FQOtbgdYz6H3
Lm7IXPKxrpA2Z9Q5lrgEtGaw90YquiFDRrn7k9E51v1AtNKd6dhP3K4UjnMFJopc
IVw5pcCaZhy4npRR7nGMmanCLjkAhQTRFKcjAE97UjVhCtIKZMkyE31GfTX2sTFI
OGBqm7W/PSM1kSECAwEAAaOBzTCByjAdBgNVHQ4EFgQUGRt4jZNisklmkFVuULPQ
r2HrOfMwgZoGA1UdIwSBkjCBj4AUEjitBchZsRCf/6hrLs4DUv9Z2H+hc6RxMG8x
CzAJBgNVBAYTAlVTMREwDwYDVQQIEwhDb2xvcmFkbzEUMBIGA1UEBxMLV2VzdG1p
bnN0ZXIxDjAMBgNVBAoTBUphc2lnMQwwCgYDVQQLEwNDQVMxGTAXBgNVBAMTEENB
UyBUZXN0IFJvb3QgQ0GCAgylMAwGA1UdEwQFMAMBAf8wDQYJKoZIhvcNAQEFBQAD
ggEBAAWVateotcyUolQaJwREVfLNL9MV7lyAmWMUtCOG/myQ3jqsJmic76tVVgB3
TtyTMjLreNoq+4YvetDj2LPsAldgQftNslhFJpq6NZZr/wxuaNTKaXTMVeXvdAe/
isB6YyL9Bh2TGA3CjxJFOpkPfyAjJzqLdSwmWTfWdXZLS4c0qJn565C/WuVDoPrW
Qs8exFhDwkQ6kIRcgoPba8Qh51456s5Pvijhv0jj1vsKiJK9s98sDGbSI10DiV/e
T66PBUeaqoRwtXS9GSzNygv1moJfG+KnyQ+avMJp9FzyKcvewvZjjd8VtjRkDaqj
QjLmW+tXEOMBsXi2/KL/Yj+6Q0o=
-----END CERTIFICATE-----
