Certificate:
    Data:
        Version: 3 (0x2)
        Serial Number: 3237 (0xca5)
        Signature Algorithm: sha1WithRSAEncryption
        Issuer: C=US, ST=Colorado, L=Westminster, O=Jasig, OU=CAS, CN=CAS Test Root CA
        Validity
            Not Before: Jan 19 16:47:44 2011 GMT
            Not After : Dec 14 16:47:44 2032 GMT
        Subject: C=US, ST=Colorado, L=Westminster, O=Jasig, OU=CAS, CN=CAS Test Intermediate CA
        Subject Public Key Info:
            Public Key Algorithm: rsaEncryption
            RSA Public Key: (2048 bit)
                Modulus (2048 bit):
                    00:dd:46:76:c1:1d:68:29:5f:1e:90:93:66:88:75:
                    ca:21:91:e8:a6:cc:f3:b0:58:30:d2:94:2d:62:51:
                    1d:63:e3:7b:7b:e7:f2:3a:bc:c4:c9:e5:48:b0:46:
                    cd:7b:c9:f7:27:bf:5f:e9:01:57:95:cb:c5:b1:e1:
                    3c:85:b2:61:f3:0f:c9:fd:e0:8f:0a:fe:3a:f5:2a:
                    27:09:22:44:dc:7c:c6:49:1d:f7:af:24:27:2c:dd:
                    1d:77:81:dd:46:08:75:f5:3a:d4:7d:c7:92:b0:fb:
                    36:02:04:6d:10:b5:43:e2:93:c4:60:19:40:ca:35:
                    f5:fb:60:e8:4c:d0:25:46:33:6c:b2:f2:8d:13:ef:
                    7c:55:d9:58:78:4c:e6:7f:ef:7f:0a:30:44:76:3e:
                    50:69:a4:cd:05:33:fa:dd:9a:1c:cb:60:46:46:58:
                    be:9a:cc:dd:94:63:09:d7:cb:ee:40:9c:a0:b0:37:
                    42:3f:58:a8:9d:f2:07:d0:24:fc:96:5b:de:a1:e4:
                    ad:09:c3:c3:81:41:6b:41:95:07:e8:c7:6f:4a:01:
                    77:e4:ac:2d:13:5a:f9:a5:44:5a:50:58:c4:83:7c:
                    e0:80:95:11:5c:42:ad:24:76:58:2b:e5:1d:1c:f9:
                    a5:69:34:23:07:6b:bf:3b:82:e7:62:5c:dc:9d:ae:
                    93:db
                Exponent: 65537 (0x10001)
        X509v3 extensions:
            X509v3 Subject Key Identifier: 
                12:38:AD:05:C8:59:B1:10:9F:FF:A8:6B:2E:CE:03:52:FF:59:D8:7F
            X509v3 Authority Key Identifier: 
                keyid:F1:1A:2E:93:C7:42:81:1B:1B:2B:1B:1B:65:28:DD:AF:8D:EA:43:F2
                DirName:/C=US/ST=Colorado/L=Westminster/O=Jasig/OU=CAS/CN=CAS Test Root CA
                serial:0C:A5

            X509v3 Basic Constraints: 
                CA:TRUE
    Signature Algorithm: sha1WithRSAEncryption
        62:1f:fa:01:79:8d:f8:f1:52:a6:4e:fa:50:4d:0b:c5:34:46:
        ee:a4:17:51:7a:1f:96:4d:d5:2b:a9:40:0d:0f:fb:a0:1a:a9:
        39:88:95:36:14:8d:6c:3b:bb:e3:9f:5b:39:8c:fc:c0:49:0c:
        e4:32:13:cf:b0:c9:1b:75:4c:b2:5b:c0:4e:0d:2b:d0:71:fc:
        01:02:eb:a9:61:37:75:1a:1f:69:61:53:b5:60:9f:84:73:dd:
        86:05:21:f3:03:38:81:0b:49:81:ba:1d:2e:86:4b:f7:40:0e:
        3f:4c:a1:2e:9f:cd:d0:1d:a0:9b:b8:42:fc:86:48:1f:a6:8a:
        28:50:d0:dc:ed:06:42:98:05:94:83:02:10:e7:e5:3e:89:ac:
        36:9d:ad:7b:a6:14:b2:fc:79:6f:1b:fe:7d:49:b4:46:0e:cb:
        66:ac:54:4b:45:88:44:f8:d9:ee:8d:d9:1d:a4:40:58:35:b6:
        f9:8f:d5:ea:f8:72:67:4d:77:f5:f4:2f:47:1f:30:d1:73:8a:
        15:ef:e4:b0:b3:50:8e:21:ec:eb:75:65:4f:37:2b:d5:e1:21:
        33:76:7e:a6:87:bd:86:89:2a:c9:7a:f5:d7:0e:e0:db:a3:81:
        1b:3d:10:02:ce:13:88:47:d5:f5:f8:a4:c5:e1:bf:4b:c4:d7:
        0c:bc:11:a4
-----BEGIN CERTIFICATE-----
MIIEMDCCAxigAwIBAgICDKUwDQYJKoZIhvcNAQEFBQAwbzELMAkGA1UEBhMCVVMx
ETAPBgNVBAgTCENvbG9yYWRvMRQwEgYDVQQHEwtXZXN0bWluc3RlcjEOMAwGA1UE
ChMFSmFzaWcxDDAKBgNVBAsTA0NBUzEZMBcGA1UEAxMQQ0FTIFRlc3QgUm9vdCBD
QTAeFw0xMTAxMTkxNjQ3NDRaFw0zMjEyMTQxNjQ3NDRaMHcxCzAJBgNVBAYTAlVT
MREwDwYDVQQIEwhDb2xvcmFkbzEUMBIGA1UEBxMLV2VzdG1pbnN0ZXIxDjAMBgNV
BAoTBUphc2lnMQwwCgYDVQQLEwNDQVMxITAfBgNVBAMTGENBUyBUZXN0IEludGVy
bWVkaWF0ZSBDQTCCASIwDQYJKoZIhvcNAQEBBQADggEPADCCAQoCggEBAN1GdsEd
aClfHpCTZoh1yiGR6KbM87BYMNKULWJRHWPje3vn8jq8xMnlSLBGzXvJ9ye/X+kB
V5XLxbHhPIWyYfMPyf3gjwr+OvUqJwkiRNx8xkkd968kJyzdHXeB3UYIdfU61H3H
krD7NgIEbRC1Q+KTxGAZQMo19ftg6EzQJUYzbLLyjRPvfFXZWHhM5n/vfwowRHY+
UGmkzQUz+t2aHMtgRkZYvprM3ZRjCdfL7kCcoLA3Qj9YqJ3yB9Ak/JZb3qHkrQnD
w4FBa0GVB+jHb0oBd+SsLRNa+aVEWlBYxIN84ICVEVxCrSR2WCvlHRz5pWk0Iwdr
vzuC52Jc3J2uk9sCAwEAAaOBzTCByjAdBgNVHQ4EFgQUEjitBchZsRCf/6hrLs4D
Uv9Z2H8wgZoGA1UdIwSBkjCBj4AU8Rouk8dCgRsbKxsbZSjdr43qQ/Khc6RxMG8x
CzAJBgNVBAYTAlVTMREwDwYDVQQIEwhDb2xvcmFkbzEUMBIGA1UEBxMLV2VzdG1p
bnN0ZXIxDjAMBgNVBAoTBUphc2lnMQwwCgYDVQQLEwNDQVMxGTAXBgNVBAMTEENB
UyBUZXN0IFJvb3QgQ0GCAgylMAwGA1UdEwQFMAMBAf8wDQYJKoZIhvcNAQEFBQAD
ggEBAGIf+gF5jfjxUqZO+lBNC8U0Ru6kF1F6H5ZN1SupQA0P+6AaqTmIlTYUjWw7
u+OfWzmM/MBJDOQyE8+wyRt1TLJbwE4NK9Bx/AEC66lhN3UaH2lhU7Vgn4Rz3YYF
IfMDOIELSYG6HS6GS/dADj9MoS6fzdAdoJu4QvyGSB+miihQ0NztBkKYBZSDAhDn
5T6JrDadrXumFLL8eW8b/n1JtEYOy2asVEtFiET42e6N2R2kQFg1tvmP1er4cmdN
d/X0L0cfMNFzihXv5LCzUI4h7Ot1ZU83K9XhITN2fqaHvYaJKsl69dcO4NujgRs9
EALOE4hH1fX4pMXhv0vE1wy8EaQ=
-----END CERTIFICATE-----
