Certificate:
    Data:
        Version: 3 (0x2)
        Serial Number: 3239 (0xca7)
        Signature Algorithm: sha1WithRSAEncryption
        Issuer: C=US, ST=Colorado, L=Westminster, O=Jasig, OU=CAS, CN=CAS Test User CA
        Validity
            Not Before: Jan 19 18:40:06 2011 GMT
            Not After : Dec 14 18:40:06 2032 GMT
        Subject: C=US, ST=Colorado, L=Westminster, O=Jasig, OU=CAS, CN=Mallory
        Subject Public Key Info:
            Public Key Algorithm: rsaEncryption
            RSA Public Key: (2048 bit)
                Modulus (2048 bit):
                    00:cb:7b:c9:05:71:72:77:e4:7a:9b:3f:5f:5b:5d:
                    2c:84:65:8a:3e:45:d5:29:71:cd:a0:01:46:f0:76:
                    a3:17:52:14:70:1c:68:11:b5:1e:de:4f:2a:c5:72:
                    d9:c5:dd:f3:e2:f3:5b:4b:c0:f1:92:29:3b:8a:1f:
                    0a:56:39:fe:02:28:cc:32:76:81:d8:db:3e:21:62:
                    dd:89:24:07:0b:d9:3a:ae:19:78:61:a0:b3:d5:ed:
                    e0:00:02:87:cb:ff:79:e6:e9:b0:b7:38:a6:db:78:
                    e1:cc:60:dd:6b:d7:4a:97:80:81:76:3c:6d:91:e4:
                    de:09:cf:a0:e6:75:29:ba:c6:d1:9c:7d:90:5d:da:
                    af:e4:a0:9e:fa:7b:2a:9e:da:e4:d4:64:1e:4c:25:
                    77:f0:3c:f5:ea:7a:8c:e8:9f:ed:ab:66:ee:c3:c7:
                    72:8c:25:30:82:7e:3f:28:22:a1:b5:6a:1d:64:8f:
                    8f:45:62:33:2e:f6:bb:0b:88:93:b7:0a:45:55:d6:
                    2d:84:72:62:5d:26:ec:8b:db:58:4f:b8:23:48:ed:
                    be:f4:55:51:8c:5b:25:2e:cf:16:12:30:d4:05:68:
                    e4:78:db:ab:bb:66:89:19:70:d0:a9:09:48:44:fb:
                    f4:7a:6c:12:55:fd:14:13:da:1f:14:c4:de:83:12:
                    c6:01
                Exponent: 65537 (0x10001)
        X509v3 extensions:
            X509v3 Basic Constraints: 
                CA:FALSE
            Netscape Comment: 
                OpenSSL Generated Certificate
            X509v3 Subject Key Identifier: 
                27:3E:80:D5:75:E0:F6:D1:53:E0:68:92:6F:67:05:DB:36:08:95:21
            X509v3 Authority Key Identifier: 
                keyid:19:1B:78:8D:93:62:B2:49:66:90:55:6E:50:B3:D0:AF:61:EB:39:F3

    Signature Algorithm: sha1WithRSAEncryption
        61:09:50:8d:2b:92:61:e5:ac:5a:f9:cf:9f:95:fb:ae:de:de:
        59:81:9f:1a:75:52:40:f4:85:54:d2:1a:3e:d7:39:8f:d4:83:
        26:13:2d:2a:a5:dc:5a:9e:43:d6:b3:78:00:92:c8:a8:7b:4d:
        0c:38:6d:94:13:d4:87:91:1d:4e:5f:f1:2d:6b:4f:45:c8:7e:
        88:01:20:08:8c:f9:6a:4a:ed:54:58:fd:3c:f8:d7:c8:ca:98:
        7f:29:9b:2c:fb:3b:bc:7d:e0:e8:2b:df:07:02:44:7a:c0:f8:
        40:6e:9f:64:68:7f:7f:a4:b7:2a:05:75:4a:8e:b7:c5:e0:15:
        18:94:21:27:ea:b2:cd:b0:5c:4e:f0:fc:98:2c:4f:20:a1:99:
        21:0e:18:24:38:6b:6c:f8:02:45:25:98:05:8a:b9:01:c9:5f:
        21:b0:29:88:51:f0:8a:46:a9:c3:9b:6b:39:1e:c9:6f:b4:96:
        1c:15:d1:6e:df:00:36:f1:3a:35:da:e5:ea:58:15:c4:e1:1c:
        b3:11:d2:b7:c1:80:23:1f:b4:3f:6c:57:1d:67:3b:cb:94:f8:
        06:7f:21:48:39:a9:4e:f7:b3:48:6c:9c:a7:d4:c6:cc:73:28:
        52:ab:06:d5:c9:89:c9:30:7d:41:01:55:ca:2a:7c:f6:aa:8f:
        28:70:f0:13
-----BEGIN CERTIFICATE-----
MIIDzDCCArSgAwIBAgICDKcwDQYJKoZIhvcNAQEFBQAwbzELMAkGA1UEBhMCVVMx
ETAPBgNVBAgTCENvbG9yYWRvMRQwEgYDVQQHEwtXZXN0bWluc3RlcjEOMAwGA1UE
ChMFSmFzaWcxDDAKBgNVBAsTA0NBUzEZMBcGA1UEAxMQQ0FTIFRlc3QgVXNlciBD
QTAeFw0xMTAxMTkxODQwMDZaFw0zMjEyMTQxODQwMDZaMGYxCzAJBgNVBAYTAlVT
MREwDwYDVQQIEwhDb2xvcmFkbzEUMBIGA1UEBxMLV2VzdG1pbnN0ZXIxDjAMBgNV
BAoTBUphc2lnMQwwCgYDVQQLEwNDQVMxEDAOBgNVBAMTB01hbGxvcnkwggEiMA0G
CSqGSIb3DQEBAQUAA4IBDwAwggEKAoIBAQDLe8kFcXJ35HqbP19bXSyEZYo+RdUp
cc2gAUbwdqMXUhRwHGgRtR7eTyrFctnF3fPi81tLwPGSKTuKHwpWOf4CKMwydoHY
2z4hYt2JJAcL2TquGXhhoLPV7eAAAofL/3nm6bC3OKbbeOHMYN1r10qXgIF2PG2R
5N4Jz6DmdSm6xtGcfZBd2q/koJ76eyqe2uTUZB5MJXfwPPXqeozon+2rZu7Dx3KM
JTCCfj8oIqG1ah1kj49FYjMu9rsLiJO3CkVV1i2EcmJdJuyL21hPuCNI7b70VVGM
WyUuzxYSMNQFaOR426u7ZokZcNCpCUhE+/R6bBJV/RQT2h8UxN6DEsYBAgMBAAGj
ezB5MAkGA1UdEwQCMAAwLAYJYIZIAYb4QgENBB8WHU9wZW5TU0wgR2VuZXJhdGVk
IENlcnRpZmljYXRlMB0GA1UdDgQWBBQnPoDVdeD20VPgaJJvZwXbNgiVITAfBgNV
HSMEGDAWgBQZG3iNk2KySWaQVW5Qs9CvYes58zANBgkqhkiG9w0BAQUFAAOCAQEA
YQlQjSuSYeWsWvnPn5X7rt7eWYGfGnVSQPSFVNIaPtc5j9SDJhMtKqXcWp5D1rN4
AJLIqHtNDDhtlBPUh5EdTl/xLWtPRch+iAEgCIz5akrtVFj9PPjXyMqYfymbLPs7
vH3g6CvfBwJEesD4QG6fZGh/f6S3KgV1So63xeAVGJQhJ+qyzbBcTvD8mCxPIKGZ
IQ4YJDhrbPgCRSWYBYq5AclfIbApiFHwikapw5trOR7Jb7SWHBXRbt8ANvE6Ndrl
6lgVxOEcsxHSt8GAIx+0P2xXHWc7y5T4Bn8hSDmpTvezSGycp9TGzHMoUqsG1cmJ
yTB9QQFVyip89qqPKHDwEw==
-----END CERTIFICATE-----
