Certificate:
    Data:
        Version: 3 (0x2)
        Serial Number: 3244 (0xcac)
        Signature Algorithm: sha1WithRSAEncryption
        Issuer: C=US, ST=Colorado, L=Westminster, O=Jasig, OU=CAS, CN=CAS Test User CA
        Validity
            Not Before: Jan 26 16:21:27 2011 GMT
            Not After : Dec 21 16:21:27 2032 GMT
        Subject: C=US, ST=Colorado, L=Westminster, O=Jasig, OU=CAS, CN=Marauder
        Subject Public Key Info:
            Public Key Algorithm: rsaEncryption
            RSA Public Key: (2048 bit)
                Modulus (2048 bit):
                    00:cb:7b:c9:05:71:72:77:e4:7a:9b:3f:5f:5b:5d:
                    2c:84:65:8a:3e:45:d5:29:71:cd:a0:01:46:f0:76:
                    a3:17:52:14:70:1c:68:11:b5:1e:de:4f:2a:c5:72:
                    d9:c5:dd:f3:e2:f3:5b:4b:c0:f1:92:29:3b:8a:1f:
                    0a:56:39:fe:02:28:cc:32:76:81:d8:db:3e:21:62:
                    dd:89:24:07:0b:d9:3a:ae:19:78:61:a0:b3:d5:ed:
                    e0:00:02:87:cb:ff:79:e6:e9:b0:b7:38:a6:db:78:
                    e1:cc:60:dd:6b:d7:4a:97:80:81:76:3c:6d:91:e4:
                    de:09:cf:a0:e6:75:29:ba:c6:d1:9c:7d:90:5d:da:
                    af:e4:a0:9e:fa:7b:2a:9e:da:e4:d4:64:1e:4c:25:
                    77:f0:3c:f5:ea:7a:8c:e8:9f:ed:ab:66:ee:c3:c7:
                    72:8c:25:30:82:7e:3f:28:22:a1:b5:6a:1d:64:8f:
                    8f:45:62:33:2e:f6:bb:0b:88:93:b7:0a:45:55:d6:
                    2d:84:72:62:5d:26:ec:8b:db:58:4f:b8:23:48:ed:
                    be:f4:55:51:8c:5b:25:2e:cf:16:12:30:d4:05:68:
                    e4:78:db:ab:bb:66:89:19:70:d0:a9:09:48:44:fb:
                    f4:7a:6c:12:55:fd:14:13:da:1f:14:c4:de:83:12:
                    c6:01
                Exponent: 65537 (0x10001)
        X509v3 extensions:
            X509v3 Basic Constraints: 
                CA:FALSE
            Netscape Comment: 
                OpenSSL Generated Certificate
            X509v3 Subject Key Identifier: 
                27:3E:80:D5:75:E0:F6:D1:53:E0:68:92:6F:67:05:DB:36:08:95:21
            X509v3 Authority Key Identifier: 
                keyid:19:1B:78:8D:93:62:B2:49:66:90:55:6E:50:B3:D0:AF:61:EB:39:F3

            X509v3 CRL Distribution Points: 
                URI:http://localhost:8085/ca.crl

    Signature Algorithm: sha1WithRSAEncryption
        1d:ce:c3:da:f9:52:fa:8d:cb:68:be:17:2d:3d:b2:dc:86:82:
        4a:4b:db:90:95:58:21:41:93:9f:8f:86:22:00:2c:6f:ae:29:
        27:30:cc:78:d1:79:84:27:e0:44:a4:d2:af:7c:1e:1a:71:59:
        44:b0:23:ff:73:34:09:63:78:37:57:87:62:eb:2f:4b:b7:16:
        90:f9:f8:5a:4d:e5:c3:ac:e3:04:9e:ff:0c:87:aa:e1:2b:25:
        ef:2d:59:03:36:53:6b:d5:54:dc:3c:39:13:88:06:e0:58:f0:
        1b:f6:10:9e:20:19:40:bb:ac:00:15:a7:09:72:3c:65:81:d9:
        40:40:68:d4:a0:7b:f5:33:8f:fa:54:13:cf:e9:ef:f6:e4:41:
        aa:41:c2:95:c2:55:9f:39:78:3f:d1:1e:66:4b:de:f7:b5:53:
        83:1b:a2:0b:2e:51:9c:d1:c4:2b:75:d8:59:dc:26:64:b1:c8:
        bc:29:ff:50:ca:4e:ba:b0:c7:c5:ca:d7:97:1b:ff:11:b3:fc:
        cc:9e:05:6d:c6:80:2c:33:a4:d6:38:b0:31:ae:ee:90:4c:14:
        7b:b0:63:76:b5:b8:95:de:9d:72:3b:17:f7:df:e0:b0:cf:f1:
        c8:46:5b:7d:4c:06:2b:a3:42:c7:99:c8:85:9f:d8:af:21:45:
        f3:ee:29:78
-----BEGIN CERTIFICATE-----
MIID/jCCAuagAwIBAgICDKwwDQYJKoZIhvcNAQEFBQAwbzELMAkGA1UEBhMCVVMx
ETAPBgNVBAgTCENvbG9yYWRvMRQwEgYDVQQHEwtXZXN0bWluc3RlcjEOMAwGA1UE
ChMFSmFzaWcxDDAKBgNVBAsTA0NBUzEZMBcGA1UEAxMQQ0FTIFRlc3QgVXNlciBD
QTAeFw0xMTAxMjYxNjIxMjdaFw0zMjEyMjExNjIxMjdaMGcxCzAJBgNVBAYTAlVT
MREwDwYDVQQIEwhDb2xvcmFkbzEUMBIGA1UEBxMLV2VzdG1pbnN0ZXIxDjAMBgNV
BAoTBUphc2lnMQwwCgYDVQQLEwNDQVMxETAPBgNVBAMTCE1hcmF1ZGVyMIIBIjAN
BgkqhkiG9w0BAQEFAAOCAQ8AMIIBCgKCAQEAy3vJBXFyd+R6mz9fW10shGWKPkXV
KXHNoAFG8HajF1IUcBxoEbUe3k8qxXLZxd3z4vNbS8Dxkik7ih8KVjn+AijMMnaB
2Ns+IWLdiSQHC9k6rhl4YaCz1e3gAAKHy/955umwtzim23jhzGDda9dKl4CBdjxt
keTeCc+g5nUpusbRnH2QXdqv5KCe+nsqntrk1GQeTCV38Dz16nqM6J/tq2buw8dy
jCUwgn4/KCKhtWodZI+PRWIzLva7C4iTtwpFVdYthHJiXSbsi9tYT7gjSO2+9FVR
jFslLs8WEjDUBWjkeNuru2aJGXDQqQlIRPv0emwSVf0UE9ofFMTegxLGAQIDAQAB
o4GrMIGoMAkGA1UdEwQCMAAwLAYJYIZIAYb4QgENBB8WHU9wZW5TU0wgR2VuZXJh
dGVkIENlcnRpZmljYXRlMB0GA1UdDgQWBBQnPoDVdeD20VPgaJJvZwXbNgiVITAf
BgNVHSMEGDAWgBQZG3iNk2KySWaQVW5Qs9CvYes58zAtBgNVHR8EJjAkMCKgIKAe
hhxodHRwOi8vbG9jYWxob3N0OjgwODUvY2EuY3JsMA0GCSqGSIb3DQEBBQUAA4IB
AQAdzsPa+VL6jctovhctPbLchoJKS9uQlVghQZOfj4YiACxvriknMMx40XmEJ+BE
pNKvfB4acVlEsCP/czQJY3g3V4di6y9LtxaQ+fhaTeXDrOMEnv8Mh6rhKyXvLVkD
NlNr1VTcPDkTiAbgWPAb9hCeIBlAu6wAFacJcjxlgdlAQGjUoHv1M4/6VBPP6e/2
5EGqQcKVwlWfOXg/0R5mS973tVODG6ILLlGc0cQrddhZ3CZksci8Kf9Qyk66sMfF
yteXG/8Rs/zMngVtxoAsM6TWOLAxru6QTBR7sGN2tbiV3p1yOxf33+Cwz/HIRlt9
TAYro0LHmciFn9ivIUXz7il4
-----END CERTIFICATE-----
