Certificate:
    Data:
        Version: 3 (0x2)
        Serial Number: 3238 (0xca6)
        Signature Algorithm: sha1WithRSAEncryption
        Issuer: C=US, ST=Colorado, L=Westminster, O=Jasig, OU=CAS, CN=CAS Test User CA
        Validity
            Not Before: Jan 19 18:38:13 2011 GMT
            Not After : Jan 19 19:00:00 2010 GMT
        Subject: C=US, ST=Colorado, L=Westminster, O=Jasig, OU=CAS, CN=Handyman Bob
        Subject Public Key Info:
            Public Key Algorithm: rsaEncryption
            RSA Public Key: (2048 bit)
                Modulus (2048 bit):
                    00:cb:7b:c9:05:71:72:77:e4:7a:9b:3f:5f:5b:5d:
                    2c:84:65:8a:3e:45:d5:29:71:cd:a0:01:46:f0:76:
                    a3:17:52:14:70:1c:68:11:b5:1e:de:4f:2a:c5:72:
                    d9:c5:dd:f3:e2:f3:5b:4b:c0:f1:92:29:3b:8a:1f:
                    0a:56:39:fe:02:28:cc:32:76:81:d8:db:3e:21:62:
                    dd:89:24:07:0b:d9:3a:ae:19:78:61:a0:b3:d5:ed:
                    e0:00:02:87:cb:ff:79:e6:e9:b0:b7:38:a6:db:78:
                    e1:cc:60:dd:6b:d7:4a:97:80:81:76:3c:6d:91:e4:
                    de:09:cf:a0:e6:75:29:ba:c6:d1:9c:7d:90:5d:da:
                    af:e4:a0:9e:fa:7b:2a:9e:da:e4:d4:64:1e:4c:25:
                    77:f0:3c:f5:ea:7a:8c:e8:9f:ed:ab:66:ee:c3:c7:
                    72:8c:25:30:82:7e:3f:28:22:a1:b5:6a:1d:64:8f:
                    8f:45:62:33:2e:f6:bb:0b:88:93:b7:0a:45:55:d6:
                    2d:84:72:62:5d:26:ec:8b:db:58:4f:b8:23:48:ed:
                    be:f4:55:51:8c:5b:25:2e:cf:16:12:30:d4:05:68:
                    e4:78:db:ab:bb:66:89:19:70:d0:a9:09:48:44:fb:
                    f4:7a:6c:12:55:fd:14:13:da:1f:14:c4:de:83:12:
                    c6:01
                Exponent: 65537 (0x10001)
        X509v3 extensions:
            X509v3 Basic Constraints: 
                CA:FALSE
            Netscape Comment: 
                OpenSSL Generated Certificate
            X509v3 Subject Key Identifier: 
                27:3E:80:D5:75:E0:F6:D1:53:E0:68:92:6F:67:05:DB:36:08:95:21
            X509v3 Authority Key Identifier: 
                keyid:19:1B:78:8D:93:62:B2:49:66:90:55:6E:50:B3:D0:AF:61:EB:39:F3

    Signature Algorithm: sha1WithRSAEncryption
        49:29:38:5f:a4:b4:08:06:70:4f:e7:de:35:f5:4f:74:b3:50:
        a6:ca:3e:7c:67:f6:1e:65:ca:e2:9a:32:3c:58:28:10:33:36:
        18:19:19:05:38:45:16:53:c2:54:bd:2c:3f:82:c6:59:f6:ec:
        c8:13:4e:b3:29:8e:fd:c0:ee:0f:68:26:2d:f6:35:97:a6:0f:
        6c:7f:e9:03:a1:bb:5c:8a:52:92:90:7f:40:a5:ff:b4:99:81:
        9d:c3:71:f6:fd:2f:c4:a2:11:88:fa:79:22:3f:a6:f7:2a:62:
        fa:db:6e:43:a9:30:2d:96:c3:2d:3a:be:79:f7:ae:90:22:23:
        e8:7b:24:5f:63:00:38:30:4b:db:22:d8:84:48:e1:2a:5f:d5:
        5f:8b:3c:c0:9d:8b:29:45:2d:b5:33:7f:e6:46:38:ea:f4:65:
        f3:d7:29:0a:f9:23:62:d7:ad:93:ae:04:fb:c1:fa:5b:50:80:
        ba:2d:05:d0:81:47:d1:c6:c0:4e:85:74:b0:9e:14:ec:73:79:
        3d:75:f5:bb:2b:dd:16:5c:8b:5f:65:c0:7b:c3:25:83:c4:3b:
        b5:eb:c3:72:53:bd:a0:bf:0f:a7:3e:2c:64:21:2f:dc:c2:5c:
        b6:eb:ee:10:37:d2:3a:19:96:b1:11:41:06:77:0d:eb:3b:b5:
        2c:26:ce:67
-----BEGIN CERTIFICATE-----
MIID0TCCArmgAwIBAgICDKYwDQYJKoZIhvcNAQEFBQAwbzELMAkGA1UEBhMCVVMx
ETAPBgNVBAgTCENvbG9yYWRvMRQwEgYDVQQHEwtXZXN0bWluc3RlcjEOMAwGA1UE
ChMFSmFzaWcxDDAKBgNVBAsTA0NBUzEZMBcGA1UEAxMQQ0FTIFRlc3QgVXNlciBD
QTAeFw0xMTAxMTkxODM4MTNaFw0xMDAxMTkxOTAwMDBaMGsxCzAJBgNVBAYTAlVT
MREwDwYDVQQIEwhDb2xvcmFkbzEUMBIGA1UEBxMLV2VzdG1pbnN0ZXIxDjAMBgNV
BAoTBUphc2lnMQwwCgYDVQQLEwNDQVMxFTATBgNVBAMTDEhhbmR5bWFuIEJvYjCC
ASIwDQYJKoZIhvcNAQEBBQADggEPADCCAQoCggEBAMt7yQVxcnfkeps/X1tdLIRl
ij5F1SlxzaABRvB2oxdSFHAcaBG1Ht5PKsVy2cXd8+LzW0vA8ZIpO4ofClY5/gIo
zDJ2gdjbPiFi3YkkBwvZOq4ZeGGgs9Xt4AACh8v/eebpsLc4ptt44cxg3WvXSpeA
gXY8bZHk3gnPoOZ1KbrG0Zx9kF3ar+Sgnvp7Kp7a5NRkHkwld/A89ep6jOif7atm
7sPHcowlMIJ+PygiobVqHWSPj0ViMy72uwuIk7cKRVXWLYRyYl0m7IvbWE+4I0jt
vvRVUYxbJS7PFhIw1AVo5Hjbq7tmiRlw0KkJSET79HpsElX9FBPaHxTE3oMSxgEC
AwEAAaN7MHkwCQYDVR0TBAIwADAsBglghkgBhvhCAQ0EHxYdT3BlblNTTCBHZW5l
cmF0ZWQgQ2VydGlmaWNhdGUwHQYDVR0OBBYEFCc+gNV14PbRU+Bokm9nBds2CJUh
MB8GA1UdIwQYMBaAFBkbeI2TYrJJZpBVblCz0K9h6znzMA0GCSqGSIb3DQEBBQUA
A4IBAQBJKThfpLQIBnBP59419U90s1Cmyj58Z/YeZcrimjI8WCgQMzYYGRkFOEUW
U8JUvSw/gsZZ9uzIE06zKY79wO4PaCYt9jWXpg9sf+kDobtcilKSkH9Apf+0mYGd
w3H2/S/EohGI+nkiP6b3KmL6225DqTAtlsMtOr55966QIiPoeyRfYwA4MEvbItiE
SOEqX9VfizzAnYspRS21M3/mRjjq9GXz1ykK+SNi162TrgT7wfpbUIC6LQXQgUfR
xsBOhXSwnhTsc3k9dfW7K90WXItfZcB7wyWDxDu168NyU72gvw+nPixkIS/cwly2
6+4QN9I6GZaxEUEGdw3rO7UsJs5n
-----END CERTIFICATE-----
