Certificate:
    Data:
        Version: 3 (0x2)
        Serial Number: 3243 (0xcab)
        Signature Algorithm: sha1WithRSAEncryption
        Issuer: C=US, ST=Colorado, L=Westminster, O=Jasig, OU=CAS, CN=CAS Test User CA
        Validity
            Not Before: Jan 26 16:10:23 2011 GMT
            Not After : Dec 21 16:10:23 2032 GMT
        Subject: C=US, ST=Colorado, L=Westminster, O=Jasig, OU=CAS, CN=Marauder
        Subject Public Key Info:
            Public Key Algorithm: rsaEncryption
            RSA Public Key: (2048 bit)
                Modulus (2048 bit):
                    00:cb:7b:c9:05:71:72:77:e4:7a:9b:3f:5f:5b:5d:
                    2c:84:65:8a:3e:45:d5:29:71:cd:a0:01:46:f0:76:
                    a3:17:52:14:70:1c:68:11:b5:1e:de:4f:2a:c5:72:
                    d9:c5:dd:f3:e2:f3:5b:4b:c0:f1:92:29:3b:8a:1f:
                    0a:56:39:fe:02:28:cc:32:76:81:d8:db:3e:21:62:
                    dd:89:24:07:0b:d9:3a:ae:19:78:61:a0:b3:d5:ed:
                    e0:00:02:87:cb:ff:79:e6:e9:b0:b7:38:a6:db:78:
                    e1:cc:60:dd:6b:d7:4a:97:80:81:76:3c:6d:91:e4:
                    de:09:cf:a0:e6:75:29:ba:c6:d1:9c:7d:90:5d:da:
                    af:e4:a0:9e:fa:7b:2a:9e:da:e4:d4:64:1e:4c:25:
                    77:f0:3c:f5:ea:7a:8c:e8:9f:ed:ab:66:ee:c3:c7:
                    72:8c:25:30:82:7e:3f:28:22:a1:b5:6a:1d:64:8f:
                    8f:45:62:33:2e:f6:bb:0b:88:93:b7:0a:45:55:d6:
                    2d:84:72:62:5d:26:ec:8b:db:58:4f:b8:23:48:ed:
                    be:f4:55:51:8c:5b:25:2e:cf:16:12:30:d4:05:68:
                    e4:78:db:ab:bb:66:89:19:70:d0:a9:09:48:44:fb:
                    f4:7a:6c:12:55:fd:14:13:da:1f:14:c4:de:83:12:
                    c6:01
                Exponent: 65537 (0x10001)
        X509v3 extensions:
            X509v3 Basic Constraints: 
                CA:FALSE
            Netscape Comment: 
                OpenSSL Generated Certificate
            X509v3 Subject Key Identifier: 
                27:3E:80:D5:75:E0:F6:D1:53:E0:68:92:6F:67:05:DB:36:08:95:21
            X509v3 Authority Key Identifier: 
                keyid:19:1B:78:8D:93:62:B2:49:66:90:55:6E:50:B3:D0:AF:61:EB:39:F3

            X509v3 CRL Distribution Points: 
                URI:http://localhost:8085/ca.crl
                URI:http://example.com/ca.crl

    Signature Algorithm: sha1WithRSAEncryption
        32:9e:ac:52:2a:4b:fb:be:1c:a7:c7:bf:85:3e:52:5b:28:01:
        84:07:95:5d:ee:17:c6:3d:68:3b:97:2b:b2:69:c4:82:dc:11:
        3a:20:a1:92:32:3a:ed:13:48:5a:1b:ac:25:07:80:af:42:f8:
        9d:2c:11:be:ca:77:bb:8e:01:26:95:bb:ea:f7:bd:9d:a0:c3:
        fd:4e:98:02:43:b7:b6:79:03:9b:8f:f6:73:06:e9:09:2e:19:
        dd:69:bf:40:22:9f:8c:ef:bd:d2:76:73:b9:c7:e5:dd:9b:fc:
        3f:8c:2d:6a:7a:c7:d2:58:31:e3:7d:b0:f0:a2:36:a0:32:19:
        d7:75:7c:cb:95:a2:1d:44:4c:04:2a:80:d9:e4:55:a7:07:ef:
        24:01:3e:ad:6a:72:2b:1a:b4:ae:4c:21:fb:e5:cd:9a:e6:1d:
        a4:5f:2b:3e:53:92:0a:b6:92:00:ea:cb:e4:27:fd:6a:77:ad:
        d6:6a:48:57:f0:df:e2:f4:91:47:94:33:33:0d:43:da:ec:5d:
        73:8d:dd:cc:83:e5:00:f2:aa:28:29:1e:30:82:6f:c1:be:2a:
        f8:9c:ea:5c:37:8d:8f:d7:cd:f5:32:c6:30:82:f7:39:a8:e0:
        7d:33:e9:11:87:40:24:31:a1:86:2d:1f:4b:fe:34:1c:ac:f0:
        8f:01:76:09
-----BEGIN CERTIFICATE-----
MIIEHzCCAwegAwIBAgICDKswDQYJKoZIhvcNAQEFBQAwbzELMAkGA1UEBhMCVVMx
ETAPBgNVBAgTCENvbG9yYWRvMRQwEgYDVQQHEwtXZXN0bWluc3RlcjEOMAwGA1UE
ChMFSmFzaWcxDDAKBgNVBAsTA0NBUzEZMBcGA1UEAxMQQ0FTIFRlc3QgVXNlciBD
QTAeFw0xMTAxMjYxNjEwMjNaFw0zMjEyMjExNjEwMjNaMGcxCzAJBgNVBAYTAlVT
MREwDwYDVQQIEwhDb2xvcmFkbzEUMBIGA1UEBxMLV2VzdG1pbnN0ZXIxDjAMBgNV
BAoTBUphc2lnMQwwCgYDVQQLEwNDQVMxETAPBgNVBAMTCE1hcmF1ZGVyMIIBIjAN
BgkqhkiG9w0BAQEFAAOCAQ8AMIIBCgKCAQEAy3vJBXFyd+R6mz9fW10shGWKPkXV
KXHNoAFG8HajF1IUcBxoEbUe3k8qxXLZxd3z4vNbS8Dxkik7ih8KVjn+AijMMnaB
2Ns+IWLdiSQHC9k6rhl4YaCz1e3gAAKHy/955umwtzim23jhzGDda9dKl4CBdjxt
keTeCc+g5nUpusbRnH2QXdqv5KCe+nsqntrk1GQeTCV38Dz16nqM6J/tq2buw8dy
jCUwgn4/KCKhtWodZI+PRWIzLva7C4iTtwpFVdYthHJiXSbsi9tYT7gjSO2+9FVR
jFslLs8WEjDUBWjkeNuru2aJGXDQqQlIRPv0emwSVf0UE9ofFMTegxLGAQIDAQAB
o4HMMIHJMAkGA1UdEwQCMAAwLAYJYIZIAYb4QgENBB8WHU9wZW5TU0wgR2VuZXJh
dGVkIENlcnRpZmljYXRlMB0GA1UdDgQWBBQnPoDVdeD20VPgaJJvZwXbNgiVITAf
BgNVHSMEGDAWgBQZG3iNk2KySWaQVW5Qs9CvYes58zBOBgNVHR8ERzBFMCKgIKAe
hhxodHRwOi8vbG9jYWxob3N0OjgwODUvY2EuY3JsMB+gHaAbhhlodHRwOi8vZXhh
bXBsZS5jb20vY2EuY3JsMA0GCSqGSIb3DQEBBQUAA4IBAQAynqxSKkv7vhynx7+F
PlJbKAGEB5Vd7hfGPWg7lyuyacSC3BE6IKGSMjrtE0haG6wlB4CvQvidLBG+yne7
jgEmlbvq972doMP9TpgCQ7e2eQObj/ZzBukJLhndab9AIp+M773SdnO5x+Xdm/w/
jC1qesfSWDHjfbDwojagMhnXdXzLlaIdREwEKoDZ5FWnB+8kAT6tanIrGrSuTCH7
5c2a5h2kXys+U5IKtpIA6svkJ/1qd63WakhX8N/i9JFHlDMzDUPa7F1zjd3Mg+UA
8qooKR4wgm/Bvir4nOpcN42P1831MsYwgvc5qOB9M+kRh0AkMaGGLR9L/jQcrPCP
AXYJ
-----END CERTIFICATE-----
