Certificate:
    Data:
        Version: 3 (0x2)
        Serial Number: 3242 (0xcaa)
        Signature Algorithm: sha1WithRSAEncryption
        Issuer: C=US, ST=Colorado, L=Westminster, O=Jasig, OU=CAS, CN=CAS Test User CA
        Validity
            Not Before: Jan 26 16:00:57 2011 GMT
            Not After : Dec 21 16:00:57 2032 GMT
        Subject: C=US, ST=Colorado, L=Westminster, O=Jasig, OU=CAS, CN=Anthony
        Subject Public Key Info:
            Public Key Algorithm: rsaEncryption
            RSA Public Key: (2048 bit)
                Modulus (2048 bit):
                    00:cb:7b:c9:05:71:72:77:e4:7a:9b:3f:5f:5b:5d:
                    2c:84:65:8a:3e:45:d5:29:71:cd:a0:01:46:f0:76:
                    a3:17:52:14:70:1c:68:11:b5:1e:de:4f:2a:c5:72:
                    d9:c5:dd:f3:e2:f3:5b:4b:c0:f1:92:29:3b:8a:1f:
                    0a:56:39:fe:02:28:cc:32:76:81:d8:db:3e:21:62:
                    dd:89:24:07:0b:d9:3a:ae:19:78:61:a0:b3:d5:ed:
                    e0:00:02:87:cb:ff:79:e6:e9:b0:b7:38:a6:db:78:
                    e1:cc:60:dd:6b:d7:4a:97:80:81:76:3c:6d:91:e4:
                    de:09:cf:a0:e6:75:29:ba:c6:d1:9c:7d:90:5d:da:
                    af:e4:a0:9e:fa:7b:2a:9e:da:e4:d4:64:1e:4c:25:
                    77:f0:3c:f5:ea:7a:8c:e8:9f:ed:ab:66:ee:c3:c7:
                    72:8c:25:30:82:7e:3f:28:22:a1:b5:6a:1d:64:8f:
                    8f:45:62:33:2e:f6:bb:0b:88:93:b7:0a:45:55:d6:
                    2d:84:72:62:5d:26:ec:8b:db:58:4f:b8:23:48:ed:
                    be:f4:55:51:8c:5b:25:2e:cf:16:12:30:d4:05:68:
                    e4:78:db:ab:bb:66:89:19:70:d0:a9:09:48:44:fb:
                    f4:7a:6c:12:55:fd:14:13:da:1f:14:c4:de:83:12:
                    c6:01
                Exponent: 65537 (0x10001)
        X509v3 extensions:
            X509v3 Basic Constraints: 
                CA:FALSE
            Netscape Comment: 
                OpenSSL Generated Certificate
            X509v3 Subject Key Identifier: 
                27:3E:80:D5:75:E0:F6:D1:53:E0:68:92:6F:67:05:DB:36:08:95:21
            X509v3 Authority Key Identifier: 
                keyid:19:1B:78:8D:93:62:B2:49:66:90:55:6E:50:B3:D0:AF:61:EB:39:F3

            X509v3 CRL Distribution Points: 
                URI:http://localhost:8085/ca.crl
                URI:http://example.com/ca.crl

    Signature Algorithm: sha1WithRSAEncryption
        1f:e3:c6:d6:87:cb:3f:ff:5f:c4:6f:b8:eb:69:8e:15:0c:d4:
        95:73:17:6a:5e:5d:39:ab:67:12:c8:ec:f5:bb:49:40:e4:85:
        8e:83:db:b8:2c:0a:c8:f0:74:1d:23:32:0a:96:de:15:e9:ff:
        1b:87:aa:7b:ed:b9:d0:d1:32:d2:75:d5:83:be:87:b5:f9:7c:
        41:23:e1:8d:01:4b:aa:4a:49:a6:d6:c7:45:13:f5:23:a5:44:
        5a:75:2f:ac:2b:11:c7:bc:a8:50:b8:9f:90:93:c6:d0:e8:df:
        6a:b8:4f:ec:4e:fd:41:b2:26:97:4a:d4:a5:5f:42:c0:ad:15:
        20:b0:92:8e:bb:a0:41:f2:92:f3:f3:83:f2:4a:97:35:c1:21:
        6f:1d:32:0f:e7:23:96:06:fc:10:4a:4b:8d:dc:48:00:30:68:
        0f:de:67:97:1d:6b:52:6e:1f:22:8b:f9:cd:55:75:33:a1:55:
        25:b8:bc:f9:90:15:80:25:79:2c:3e:3d:db:64:ae:7c:b7:5a:
        da:66:4d:67:2f:15:9b:95:a6:67:cd:77:49:7f:95:b0:b7:72:
        93:a0:f9:f8:bf:70:d6:87:d5:02:26:bf:ac:3b:03:88:a9:83:
        76:72:27:f6:84:58:3f:5b:cd:db:09:aa:6b:32:49:d7:bb:d8:
        9c:8e:20:13
-----BEGIN CERTIFICATE-----
MIIEHjCCAwagAwIBAgICDKowDQYJKoZIhvcNAQEFBQAwbzELMAkGA1UEBhMCVVMx
ETAPBgNVBAgTCENvbG9yYWRvMRQwEgYDVQQHEwtXZXN0bWluc3RlcjEOMAwGA1UE
ChMFSmFzaWcxDDAKBgNVBAsTA0NBUzEZMBcGA1UEAxMQQ0FTIFRlc3QgVXNlciBD
QTAeFw0xMTAxMjYxNjAwNTdaFw0zMjEyMjExNjAwNTdaMGYxCzAJBgNVBAYTAlVT
MREwDwYDVQQIEwhDb2xvcmFkbzEUMBIGA1UEBxMLV2VzdG1pbnN0ZXIxDjAMBgNV
BAoTBUphc2lnMQwwCgYDVQQLEwNDQVMxEDAOBgNVBAMTB0FudGhvbnkwggEiMA0G
CSqGSIb3DQEBAQUAA4IBDwAwggEKAoIBAQDLe8kFcXJ35HqbP19bXSyEZYo+RdUp
cc2gAUbwdqMXUhRwHGgRtR7eTyrFctnF3fPi81tLwPGSKTuKHwpWOf4CKMwydoHY
2z4hYt2JJAcL2TquGXhhoLPV7eAAAofL/3nm6bC3OKbbeOHMYN1r10qXgIF2PG2R
5N4Jz6DmdSm6xtGcfZBd2q/koJ76eyqe2uTUZB5MJXfwPPXqeozon+2rZu7Dx3KM
JTCCfj8oIqG1ah1kj49FYjMu9rsLiJO3CkVV1i2EcmJdJuyL21hPuCNI7b70VVGM
WyUuzxYSMNQFaOR426u7ZokZcNCpCUhE+/R6bBJV/RQT2h8UxN6DEsYBAgMBAAGj
gcwwgckwCQYDVR0TBAIwADAsBglghkgBhvhCAQ0EHxYdT3BlblNTTCBHZW5lcmF0
ZWQgQ2VydGlmaWNhdGUwHQYDVR0OBBYEFCc+gNV14PbRU+Bokm9nBds2CJUhMB8G
A1UdIwQYMBaAFBkbeI2TYrJJZpBVblCz0K9h6znzME4GA1UdHwRHMEUwIqAgoB6G
HGh0dHA6Ly9sb2NhbGhvc3Q6ODA4NS9jYS5jcmwwH6AdoBuGGWh0dHA6Ly9leGFt
cGxlLmNvbS9jYS5jcmwwDQYJKoZIhvcNAQEFBQADggEBAB/jxtaHyz//X8RvuOtp
jhUM1JVzF2peXTmrZxLI7PW7SUDkhY6D27gsCsjwdB0jMgqW3hXp/xuHqnvtudDR
MtJ11YO+h7X5fEEj4Y0BS6pKSabWx0UT9SOlRFp1L6wrEce8qFC4n5CTxtDo32q4
T+xO/UGyJpdK1KVfQsCtFSCwko67oEHykvPzg/JKlzXBIW8dMg/nI5YG/BBKS43c
SAAwaA/eZ5cda1JuHyKL+c1VdTOhVSW4vPmQFYAleSw+Pdtkrny3WtpmTWcvFZuV
pmfNd0l/lbC3cpOg+fi/cNaH1QImv6w7A4ipg3ZyJ/aEWD9bzdsJqmsySde72JyO
IBM=
-----END CERTIFICATE-----
